; Function Attrs: nounwind uwtable
define hidden i32 @avifDecoderReadMemory(ptr noundef %0, ptr noundef %1, ptr noundef %2, i64 noundef %3) local_unnamed_addr #0 {
  %5 = getelementptr inbounds nuw i8, ptr %0, i64 160
  tail call void @avifDiagnosticsClearError(ptr noundef nonnull %5) #13
  %6 = tail call ptr @avifIOCreateMemoryReader(ptr noundef %2, i64 noundef %3) #13
  %.not.i = icmp eq ptr %6, null
  br i1 %.not.i, label %avifDecoderSetIOMemory.exit, label %7

7:                                                ; preds = %4
  %8 = getelementptr inbounds nuw i8, ptr %0, i64 416
  %9 = load ptr, ptr %8, align 8
  tail call void @avifIODestroy(ptr noundef %9) #13
  store ptr %6, ptr %8, align 8
  %10 = tail call i32 @avifDecoderParse(ptr noundef nonnull %0)
  %.not.i9 = icmp eq i32 %10, 0
  br i1 %.not.i9, label %11, label %avifDecoderSetIOMemory.exit

11:                                               ; preds = %7
  %12 = tail call i32 @avifDecoderNextImage(ptr noundef nonnull %0)
  %.not10.i = icmp eq i32 %12, 0
  br i1 %.not10.i, label %13, label %avifDecoderSetIOMemory.exit

13:                                               ; preds = %11
  %14 = getelementptr inbounds nuw i8, ptr %0, i64 48
  %15 = load ptr, ptr %14, align 8
  %16 = tail call i32 @avifImageCopy(ptr noundef %1, ptr noundef %15, i32 noundef 255) #13
  br label %avifDecoderSetIOMemory.exit

avifDecoderSetIOMemory.exit:                      ; preds = %13, %11, %7, %4
  %.0 = phi i32 [ 26, %4 ], [ %16, %13 ], [ %10, %7 ], [ %12, %11 ]
  ret i32 %.0
}